target datalayout = "e-m:e-p270:32:32-p271:32:32-p272:64:64-i64:64-i128:128-f80:128-n8:16:32:64-S128"
target triple = "x86_64-pc-linux-gnu"

%"struct.Luau::Field" = type { %"class.std::shared_ptr", %"class.std::__cxx11::basic_string" }
%"class.std::shared_ptr" = type { %"class.std::__shared_ptr" }
%"class.std::__shared_ptr" = type { ptr, %"class.std::__shared_count" }
%"class.std::__shared_count" = type { ptr }
%"class.std::__cxx11::basic_string" = type { %"struct.std::__cxx11::basic_string<char>::_Alloc_hider", i64, %union.anon }
%"struct.std::__cxx11::basic_string<char>::_Alloc_hider" = type { ptr }
%union.anon = type { i64, [8 x i8] }
%"class.Luau::Variant" = type { i32, [4 x i8], [48 x i8] }
%"struct.Luau::Symbol" = type { ptr, %"struct.Luau::AstName" }
%"struct.Luau::AstName" = type { ptr }

; Function Attrs: mustprogress nounwind uwtable
define linkonce_odr dso_local noundef ptr @_ZNK4Luau7VariantIJNS_6SymbolENS_5FieldEEE6get_ifIS1_EEPKT_v(ptr noundef nonnull align 8 dereferenceable(56) %0) #4 comdat align 2 {
  %2 = alloca ptr, align 8
  %3 = alloca i32, align 4
  store ptr %0, ptr %2, align 8, !tbaa !17
  %4 = load ptr, ptr %2, align 8
  call void @llvm.lifetime.start.p0(i64 4, ptr %3) #19
  store i32 0, ptr %3, align 4, !tbaa !4
  %5 = getelementptr inbounds nuw %"class.Luau::Variant", ptr %4, i32 0, i32 0
  %6 = load i32, ptr %5, align 8, !tbaa !19
  %7 = icmp eq i32 0, %6
  br i1 %7, label %8, label %10

8:                                                ; preds = %1
  %9 = getelementptr inbounds nuw %"class.Luau::Variant", ptr %4, i32 0, i32 2
  br label %11

10:                                               ; preds = %1
  br label %11

11:                                               ; preds = %10, %8
  %12 = phi ptr [ %9, %8 ], [ null, %10 ]
  call void @llvm.lifetime.end.p0(i64 4, ptr %3) #19
  ret ptr %12
}

; Function Attrs: mustprogress nounwind uwtable
define linkonce_odr dso_local noundef ptr @_ZNK4Luau7VariantIJNS_6SymbolENS_5FieldEEE6get_ifIS2_EEPKT_v(ptr noundef nonnull align 8 dereferenceable(56) %0) #4 comdat align 2 {
  %2 = alloca ptr, align 8
  %3 = alloca i32, align 4
  store ptr %0, ptr %2, align 8, !tbaa !17
  %4 = load ptr, ptr %2, align 8
  call void @llvm.lifetime.start.p0(i64 4, ptr %3) #19
  store i32 1, ptr %3, align 4, !tbaa !4
  %5 = getelementptr inbounds nuw %"class.Luau::Variant", ptr %4, i32 0, i32 0
  %6 = load i32, ptr %5, align 8, !tbaa !19
  %7 = icmp eq i32 1, %6
  br i1 %7, label %8, label %10

8:                                                ; preds = %1
  %9 = getelementptr inbounds nuw %"class.Luau::Variant", ptr %4, i32 0, i32 2
  br label %11

10:                                               ; preds = %1
  br label %11

11:                                               ; preds = %10, %8
  %12 = phi ptr [ %9, %8 ], [ null, %10 ]
  call void @llvm.lifetime.end.p0(i64 4, ptr %3) #19
  ret ptr %12
}

; Function Attrs: mustprogress uwtable
define linkonce_odr dso_local noundef ptr @_ZN4Luau6get_ifINS_6SymbolEJS1_NS_5FieldEEEEPKT_PKNS_7VariantIJDpT0_EEE(ptr noundef %0) #2 comdat {
  %2 = alloca ptr, align 8
  store ptr %0, ptr %2, align 8, !tbaa !17
  %3 = load ptr, ptr %2, align 8, !tbaa !17
  %4 = icmp ne ptr %3, null
  br i1 %4, label %5, label %8

5:                                                ; preds = %1
  %6 = load ptr, ptr %2, align 8, !tbaa !17
  %7 = call noundef ptr @_ZNK4Luau7VariantIJNS_6SymbolENS_5FieldEEE6get_ifIS1_EEPKT_v(ptr noundef nonnull align 8 dereferenceable(56) %6)
  br label %9

8:                                                ; preds = %1
  br label %9

9:                                                ; preds = %8, %5
  %10 = phi ptr [ %7, %5 ], [ null, %8 ]
  ret ptr %10
}

; Function Attrs: mustprogress nounwind uwtable
define linkonce_odr dso_local noundef ptr @_ZNKSt12__shared_ptrIN4Luau7VariantIJNS0_6SymbolENS0_5FieldEEEELN9__gnu_cxx12_Lock_policyE2EE3getEv(ptr noundef nonnull align 8 dereferenceable(16) %0) #4 comdat align 2 {
  %2 = alloca ptr, align 8
  store ptr %0, ptr %2, align 8, !tbaa !40
  %3 = load ptr, ptr %2, align 8
  %4 = getelementptr inbounds nuw %"class.std::__shared_ptr", ptr %3, i32 0, i32 0
  %5 = load ptr, ptr %4, align 8, !tbaa !42
  ret ptr %5
}

; Function Attrs: mustprogress uwtable
define linkonce_odr dso_local noundef ptr @_ZN4Luau6get_ifINS_5FieldEJNS_6SymbolES1_EEEPKT_PKNS_7VariantIJDpT0_EEE(ptr noundef %0) #2 comdat {
  %2 = alloca ptr, align 8
  store ptr %0, ptr %2, align 8, !tbaa !17
  %3 = load ptr, ptr %2, align 8, !tbaa !17
  %4 = icmp ne ptr %3, null
  br i1 %4, label %5, label %8

5:                                                ; preds = %1
  %6 = load ptr, ptr %2, align 8, !tbaa !17
  %7 = call noundef ptr @_ZNK4Luau7VariantIJNS_6SymbolENS_5FieldEEE6get_ifIS2_EEPKT_v(ptr noundef nonnull align 8 dereferenceable(56) %6)
  br label %9

8:                                                ; preds = %1
  br label %9

9:                                                ; preds = %8, %5
  %10 = phi ptr [ %7, %5 ], [ null, %8 ]
  ret ptr %10
}

; Function Attrs: mustprogress uwtable
define linkonce_odr dso_local noundef ptr @_ZN4Luau3getINS_6SymbolEEEPKT_RKNS_7VariantIJS1_NS_5FieldEEEE(ptr noundef nonnull align 8 dereferenceable(56) %0) #2 comdat {
  %2 = alloca ptr, align 8
  store ptr %0, ptr %2, align 8, !tbaa !17
  %3 = load ptr, ptr %2, align 8, !tbaa !17
  %4 = call noundef ptr @_ZN4Luau6get_ifINS_6SymbolEJS1_NS_5FieldEEEEPKT_PKNS_7VariantIJDpT0_EEE(ptr noundef %3)
  ret ptr %4
}

; Function Attrs: mustprogress uwtable
define dso_local noundef ptr @_ZN4Luau6baseofERKNS_7VariantIJNS_6SymbolENS_5FieldEEEE(ptr noundef nonnull align 8 dereferenceable(56) %0) #2 {
  %2 = alloca ptr, align 8
  %3 = alloca ptr, align 8
  %4 = alloca ptr, align 8
  %5 = alloca i32, align 4
  %6 = alloca ptr, align 8
  store ptr %0, ptr %3, align 8, !tbaa !17
  call void @llvm.lifetime.start.p0(i64 8, ptr %4) #19
  %7 = load ptr, ptr %3, align 8, !tbaa !17
  %8 = call noundef ptr @_ZN4Luau3getINS_5FieldEEEPKT_RKNS_7VariantIJNS_6SymbolES1_EEE(ptr noundef nonnull align 8 dereferenceable(56) %7)
  store ptr %8, ptr %4, align 8, !tbaa !8
  %9 = load ptr, ptr %4, align 8, !tbaa !8
  %10 = icmp ne ptr %9, null
  br i1 %10, label %11, label %15

11:                                               ; preds = %1
  %12 = load ptr, ptr %4, align 8, !tbaa !8
  %13 = getelementptr inbounds nuw %"struct.Luau::Field", ptr %12, i32 0, i32 0
  %14 = call noundef ptr @_ZNKSt12__shared_ptrIN4Luau7VariantIJNS0_6SymbolENS0_5FieldEEEELN9__gnu_cxx12_Lock_policyE2EE3getEv(ptr noundef nonnull align 8 dereferenceable(16) %13) #19
  store ptr %14, ptr %2, align 8
  store i32 1, ptr %5, align 4
  br label %16

15:                                               ; preds = %1
  store i32 0, ptr %5, align 4
  br label %16

16:                                               ; preds = %15, %11
  call void @llvm.lifetime.end.p0(i64 8, ptr %4) #19
  %17 = load i32, ptr %5, align 4
  switch i32 %17, label %23 [
    i32 0, label %18
    i32 1, label %21
  ]

18:                                               ; preds = %16
  call void @llvm.lifetime.start.p0(i64 8, ptr %6) #19
  %19 = load ptr, ptr %3, align 8, !tbaa !17
  %20 = call noundef ptr @_ZN4Luau3getINS_6SymbolEEEPKT_RKNS_7VariantIJS1_NS_5FieldEEEE(ptr noundef nonnull align 8 dereferenceable(56) %19)
  store ptr %20, ptr %6, align 8, !tbaa !26
  store ptr null, ptr %2, align 8
  store i32 1, ptr %5, align 4
  call void @llvm.lifetime.end.p0(i64 8, ptr %6) #19
  br label %21

21:                                               ; preds = %18, %16
  %22 = load ptr, ptr %2, align 8
  ret ptr %22

23:                                               ; preds = %16
  unreachable
}

; Function Attrs: mustprogress uwtable
define linkonce_odr dso_local noundef ptr @_ZN4Luau3getINS_5FieldEEEPKT_RKNS_7VariantIJNS_6SymbolES1_EEE(ptr noundef nonnull align 8 dereferenceable(56) %0) #2 comdat {
  %2 = alloca ptr, align 8
  store ptr %0, ptr %2, align 8, !tbaa !17
  %3 = load ptr, ptr %2, align 8, !tbaa !17
  %4 = call noundef ptr @_ZN4Luau6get_ifINS_5FieldEJNS_6SymbolES1_EEEPKT_PKNS_7VariantIJDpT0_EEE(ptr noundef %3)
  ret ptr %4
}

; Function Attrs: mustprogress uwtable
define dso_local { ptr, ptr } @_ZN4Luau13getBaseSymbolERKNS_7VariantIJNS_6SymbolENS_5FieldEEEE(ptr noundef nonnull align 8 dereferenceable(56) %0) #2 {
  %2 = alloca %"struct.Luau::Symbol", align 8
  %3 = alloca ptr, align 8
  %4 = alloca ptr, align 8
  %5 = alloca ptr, align 8
  %6 = alloca i32, align 4
  %7 = alloca ptr, align 8
  store ptr %0, ptr %3, align 8, !tbaa !17
  call void @llvm.lifetime.start.p0(i64 8, ptr %4) #19
  %8 = load ptr, ptr %3, align 8, !tbaa !17
  store ptr %8, ptr %4, align 8, !tbaa !17
  br label %9

9:                                                ; preds = %20, %1
  call void @llvm.lifetime.start.p0(i64 8, ptr %5) #19
  %10 = load ptr, ptr %4, align 8, !tbaa !17
  %11 = call noundef ptr @_ZN4Luau3getINS_5FieldEEEPKT_RKNS_7VariantIJNS_6SymbolES1_EEE(ptr noundef nonnull align 8 dereferenceable(56) %10)
  store ptr %11, ptr %5, align 8, !tbaa !8
  %12 = load ptr, ptr %5, align 8, !tbaa !8
  %13 = icmp ne ptr %12, null
  br i1 %13, label %15, label %14

14:                                               ; preds = %9
  store i32 3, ptr %6, align 4
  br label %18

15:                                               ; preds = %9
  %16 = load ptr, ptr %4, align 8, !tbaa !17
  %17 = call noundef ptr @_ZN4Luau6baseofERKNS_7VariantIJNS_6SymbolENS_5FieldEEEE(ptr noundef nonnull align 8 dereferenceable(56) %16)
  store ptr %17, ptr %4, align 8, !tbaa !17
  store i32 0, ptr %6, align 4
  br label %18

18:                                               ; preds = %15, %14
  call void @llvm.lifetime.end.p0(i64 8, ptr %5) #19
  %19 = load i32, ptr %6, align 4
  switch i32 %19, label %26 [
    i32 0, label %20
    i32 3, label %21
  ]

20:                                               ; preds = %18
  br label %9, !llvm.loop !99

21:                                               ; preds = %18
  call void @llvm.lifetime.start.p0(i64 8, ptr %7) #19
  %22 = load ptr, ptr %4, align 8, !tbaa !17
  %23 = call noundef ptr @_ZN4Luau3getINS_6SymbolEEEPKT_RKNS_7VariantIJS1_NS_5FieldEEEE(ptr noundef nonnull align 8 dereferenceable(56) %22)
  store ptr %23, ptr %7, align 8, !tbaa !26
  %24 = load ptr, ptr %7, align 8, !tbaa !26
  call void @llvm.memcpy.p0.p0.i64(ptr align 8 %2, ptr align 8 %24, i64 16, i1 false), !tbaa.struct !100
  store i32 1, ptr %6, align 4
  call void @llvm.lifetime.end.p0(i64 8, ptr %7) #19
  call void @llvm.lifetime.end.p0(i64 8, ptr %4) #19
  %25 = load { ptr, ptr }, ptr %2, align 8
  ret { ptr, ptr } %25

26:                                               ; preds = %18
  unreachable
}