; Function Attrs: mustprogress nofree norecurse nosync nounwind willreturn memory(read, inaccessiblemem: none) uwtable
define dso_local { ptr, ptr } @_ZN4Luau13getBaseSymbolERKNS_7VariantIJNS_6SymbolENS_5FieldEEEE(ptr noundef nonnull readonly align 8 captures(none) dereferenceable(56) %0) local_unnamed_addr #7 {
  %2 = load i32, ptr %0, align 8, !tbaa !20
  %.not11 = icmp eq i32 %2, 1
  br i1 %.not11, label %.lr.ph, label %._crit_edge

.lr.ph:                                           ; preds = %1, %.lr.ph
  %.012 = phi ptr [ %4, %.lr.ph ], [ %0, %1 ]
  %3 = getelementptr inbounds nuw i8, ptr %.012, i64 8
  %4 = load ptr, ptr %3, align 8
  %5 = load i32, ptr %4, align 8, !tbaa !20
  %.not = icmp eq i32 %5, 1
  br i1 %.not, label %.lr.ph, label %._crit_edge

._crit_edge:                                      ; preds = %.lr.ph, %1
  %.0.lcssa = phi ptr [ %0, %1 ], [ %4, %.lr.ph ]
  %6 = getelementptr inbounds nuw i8, ptr %.0.lcssa, i64 8
  %.sroa.0.0.copyload = load ptr, ptr %6, align 8, !tbaa !39
  %.sroa.2.0..0..sroa_idx = getelementptr inbounds nuw i8, ptr %.0.lcssa, i64 16
  %.sroa.2.0.copyload = load ptr, ptr %.sroa.2.0..0..sroa_idx, align 8, !tbaa !40
  %.fca.0.insert = insertvalue { ptr, ptr } poison, ptr %.sroa.0.0.copyload, 0
  %.fca.1.insert = insertvalue { ptr, ptr } %.fca.0.insert, ptr %.sroa.2.0.copyload, 1
  ret { ptr, ptr } %.fca.1.insert
}